
ps7_init.o:     file format elf32-littlearm


Disassembly of section .group:

00000000 <wm4.0.70229e57302588df81490d029754edcf>:
   0:	00000001 	andeq	r0, r0, r1
   4:	00000028 	andeq	r0, r0, r8, lsr #32

Disassembly of section .group:

00000000 <wm4.ps7_init.h.58.a1681de392ec9d19267c75d60f9f2e78>:
   0:	00000001 	andeq	r0, r0, r1
   4:	0000002a 	andeq	r0, r0, sl, lsr #32

Disassembly of section .group:

00000000 <wm4.features.h.22.6a4ca7cd053637cc1d0db6c16f39b2d7>:
   0:	00000001 	andeq	r0, r0, r1
   4:	0000002c 	andeq	r0, r0, ip, lsr #32

Disassembly of section .group:

00000000 <wm4._default_types.h.15.933e8edd27a65e0b69af4a865eb623d2>:
   0:	00000001 	andeq	r0, r0, r1
   4:	0000002e 	andeq	r0, r0, lr, lsr #32

Disassembly of section .group:

00000000 <wm4.stdint.h.20.4eb57b92550748a093dd74c0298bbe15>:
   0:	00000001 	andeq	r0, r0, r1
   4:	00000030 	andeq	r0, r0, r0, lsr r0

Disassembly of section .group:

00000000 <wm4.stddef.h.39.daafd3d79fe2f3a84d2d73d7d4e706f8>:
   0:	00000001 	andeq	r0, r0, r1
   4:	00000032 	andeq	r0, r0, r2, lsr r0

Disassembly of section .group:

00000000 <wm4.xil_types.h.63.cca46debbe27b9a192cdfc446df93736>:
   0:	00000001 	andeq	r0, r0, r1
   4:	00000034 	andeq	r0, r0, r4, lsr r0

Disassembly of section .group:

00000000 <wm4.xreg_cortexa9.h.53.7f0f4f5ab3b927ed493593e9142d89ee>:
   0:	00000001 	andeq	r0, r0, r1
   4:	00000036 	andeq	r0, r0, r6, lsr r0

Disassembly of section .group:

00000000 <wm4.xpseudo_asm_gcc.h.51.05380128081901e1409368df3ee1dbf8>:
   0:	00000001 	andeq	r0, r0, r1
   4:	00000038 	andeq	r0, r0, r8, lsr r0

Disassembly of section .group:

00000000 <wm4.newlib.h.8.fec018e441fee7bfa1923812ad010f97>:
   0:	00000001 	andeq	r0, r0, r1
   4:	0000003a 	andeq	r0, r0, sl, lsr r0

Disassembly of section .group:

00000000 <wm4.config.h.219.02e4d33cab7419d0afccfa622b3b7ccc>:
   0:	00000001 	andeq	r0, r0, r1
   4:	0000003c 	andeq	r0, r0, ip, lsr r0

Disassembly of section .group:

00000000 <wm4._ansi.h.23.5644b60c990a4800b02a6e654e88f93a>:
   0:	00000001 	andeq	r0, r0, r1
   4:	0000003e 	andeq	r0, r0, lr, lsr r0

Disassembly of section .group:

00000000 <wm4.ctype.h.69.cbd5fb729cb91642f9760ac3499dcca8>:
   0:	00000001 	andeq	r0, r0, r1
   4:	00000040 	andeq	r0, r0, r0, asr #32

Disassembly of section .group:

00000000 <wm4.lock.h.2.9bc98482741e5e2a9450b12934a684ea>:
   0:	00000001 	andeq	r0, r0, r1
   4:	00000042 	andeq	r0, r0, r2, asr #32

Disassembly of section .group:

00000000 <wm4._types.h.54.ae6c411e3055f99adfc1ecfb6e957ea6>:
   0:	00000001 	andeq	r0, r0, r1
   4:	00000044 	andeq	r0, r0, r4, asr #32

Disassembly of section .group:

00000000 <wm4.stddef.h.158.61317cdbfb4026324507d123a50b0fd6>:
   0:	00000001 	andeq	r0, r0, r1
   4:	00000046 	andeq	r0, r0, r6, asr #32

Disassembly of section .group:

00000000 <wm4.reent.h.17.d863fcf92595baadf8ef09675dda92ed>:
   0:	00000001 	andeq	r0, r0, r1
   4:	00000048 	andeq	r0, r0, r8, asr #32

Disassembly of section .group:

00000000 <wm4.cdefs.h.47.339223046f475c9f2d5db3a9118d7c65>:
   0:	00000001 	andeq	r0, r0, r1
   4:	0000004a 	andeq	r0, r0, sl, asr #32

Disassembly of section .group:

00000000 <wm4.string.h.15.dab3980bf35408a4c507182805e2de3a>:
   0:	00000001 	andeq	r0, r0, r1
   4:	0000004c 	andeq	r0, r0, ip, asr #32

Disassembly of section .group:

00000000 <wm4.stddef.h.158.a7efb00f6cbc6f43213b50e183c9830c>:
   0:	00000001 	andeq	r0, r0, r1
   4:	0000004e 	andeq	r0, r0, lr, asr #32

Disassembly of section .group:

00000000 <wm4.string.h.126.6ff3aa59129e7f66b2c273baf353e066>:
   0:	00000001 	andeq	r0, r0, r1
   4:	00000050 	andeq	r0, r0, r0, asr r0

Disassembly of section .group:

00000000 <wm4.stdarg.h.31.72c3aa8d68b291953fa52b9471bcdff7>:
   0:	00000001 	andeq	r0, r0, r1
   4:	00000052 	andeq	r0, r0, r2, asr r0

Disassembly of section .group:

00000000 <wm4.xparameters.h.2.ffbd2f46716f18fa3a5ac07419ae9f93>:
   0:	00000001 	andeq	r0, r0, r1
   4:	00000054 	andeq	r0, r0, r4, asr r0

Disassembly of section .group:

00000000 <wm4.xparameters_ps.h.57.40db1c3084240736bf45eeb8d1eb0792>:
   0:	00000001 	andeq	r0, r0, r1
   4:	00000056 	andeq	r0, r0, r6, asr r0

Disassembly of section .group:

00000000 <wm4.xparameters.h.18.387dedca06612774d0cf5b4ee907e569>:
   0:	00000001 	andeq	r0, r0, r1
   4:	00000058 	andeq	r0, r0, r8, asr r0

Disassembly of section .group:

00000000 <wm4.xil_io.h.74.e5593f207d32a3a47e53e492789df0c3>:
   0:	00000001 	andeq	r0, r0, r1
   4:	0000005a 	andeq	r0, r0, sl, asr r0

Disassembly of section .text:

00000000 <getPS7MessageInfo>:
   0:	e52db004 	push	{fp}		; (str fp, [sp, #-4]!)
   4:	e28db000 	add	fp, sp, #0
   8:	e24dd014 	sub	sp, sp, #20
   c:	e50b0010 	str	r0, [fp, #-16]
  10:	e3003000 	movw	r3, #0
  14:	e3403000 	movt	r3, #0
  18:	e50b3008 	str	r3, [fp, #-8]
  1c:	e51b3010 	ldr	r3, [fp, #-16]
  20:	e3530005 	cmp	r3, #5
  24:	979ff103 	ldrls	pc, [pc, r3, lsl #2]
  28:	ea00001d 	b	a4 <getPS7MessageInfo+0xa4>
  2c:	00000044 	andeq	r0, r0, r4, asr #32
  30:	00000054 	andeq	r0, r0, r4, asr r0
  34:	00000064 	andeq	r0, r0, r4, rrx
  38:	00000074 	andeq	r0, r0, r4, ror r0
  3c:	00000084 	andeq	r0, r0, r4, lsl #1
  40:	00000094 	muleq	r0, r4, r0
  44:	e3003000 	movw	r3, #0
  48:	e3403000 	movt	r3, #0
  4c:	e50b3008 	str	r3, [fp, #-8]
  50:	ea000017 	b	b4 <getPS7MessageInfo+0xb4>
  54:	e3003000 	movw	r3, #0
  58:	e3403000 	movt	r3, #0
  5c:	e50b3008 	str	r3, [fp, #-8]
  60:	ea000013 	b	b4 <getPS7MessageInfo+0xb4>
  64:	e3003000 	movw	r3, #0
  68:	e3403000 	movt	r3, #0
  6c:	e50b3008 	str	r3, [fp, #-8]
  70:	ea00000f 	b	b4 <getPS7MessageInfo+0xb4>
  74:	e3003000 	movw	r3, #0
  78:	e3403000 	movt	r3, #0
  7c:	e50b3008 	str	r3, [fp, #-8]
  80:	ea00000b 	b	b4 <getPS7MessageInfo+0xb4>
  84:	e3003000 	movw	r3, #0
  88:	e3403000 	movt	r3, #0
  8c:	e50b3008 	str	r3, [fp, #-8]
  90:	ea000007 	b	b4 <getPS7MessageInfo+0xb4>
  94:	e3003000 	movw	r3, #0
  98:	e3403000 	movt	r3, #0
  9c:	e50b3008 	str	r3, [fp, #-8]
  a0:	ea000003 	b	b4 <getPS7MessageInfo+0xb4>
  a4:	e3003000 	movw	r3, #0
  a8:	e3403000 	movt	r3, #0
  ac:	e50b3008 	str	r3, [fp, #-8]
  b0:	e1a00000 	nop			; (mov r0, r0)
  b4:	e51b3008 	ldr	r3, [fp, #-8]
  b8:	e1a00003 	mov	r0, r3
  bc:	e24bd000 	sub	sp, fp, #0
  c0:	e49db004 	pop	{fp}		; (ldr fp, [sp], #4)
  c4:	e12fff1e 	bx	lr

000000c8 <ps7GetSiliconVersion>:
  c8:	e52db004 	push	{fp}		; (str fp, [sp, #-4]!)
  cc:	e28db000 	add	fp, sp, #0
  d0:	e24dd014 	sub	sp, sp, #20
  d4:	e3a0320f 	mov	r3, #-268435456	; 0xf0000000
  d8:	e50b3008 	str	r3, [fp, #-8]
  dc:	e3073080 	movw	r3, #28800	; 0x7080
  e0:	e34f3800 	movt	r3, #63488	; 0xf800
  e4:	e50b300c 	str	r3, [fp, #-12]
  e8:	e51b300c 	ldr	r3, [fp, #-12]
  ec:	e5932000 	ldr	r2, [r3]
  f0:	e51b3008 	ldr	r3, [fp, #-8]
  f4:	e0033002 	and	r3, r3, r2
  f8:	e1a03e23 	lsr	r3, r3, #28
  fc:	e50b3010 	str	r3, [fp, #-16]
 100:	e51b3010 	ldr	r3, [fp, #-16]
 104:	e1a00003 	mov	r0, r3
 108:	e24bd000 	sub	sp, fp, #0
 10c:	e49db004 	pop	{fp}		; (ldr fp, [sp], #4)
 110:	e12fff1e 	bx	lr

00000114 <mask_write>:
 114:	e52db004 	push	{fp}		; (str fp, [sp, #-4]!)
 118:	e28db000 	add	fp, sp, #0
 11c:	e24dd01c 	sub	sp, sp, #28
 120:	e50b0010 	str	r0, [fp, #-16]
 124:	e50b1014 	str	r1, [fp, #-20]	; 0xffffffec
 128:	e50b2018 	str	r2, [fp, #-24]	; 0xffffffe8
 12c:	e51b3010 	ldr	r3, [fp, #-16]
 130:	e50b3008 	str	r3, [fp, #-8]
 134:	e51b2018 	ldr	r2, [fp, #-24]	; 0xffffffe8
 138:	e51b3014 	ldr	r3, [fp, #-20]	; 0xffffffec
 13c:	e0022003 	and	r2, r2, r3
 140:	e51b3008 	ldr	r3, [fp, #-8]
 144:	e5931000 	ldr	r1, [r3]
 148:	e51b3014 	ldr	r3, [fp, #-20]	; 0xffffffec
 14c:	e1e03003 	mvn	r3, r3
 150:	e0033001 	and	r3, r3, r1
 154:	e1822003 	orr	r2, r2, r3
 158:	e51b3008 	ldr	r3, [fp, #-8]
 15c:	e5832000 	str	r2, [r3]
 160:	e24bd000 	sub	sp, fp, #0
 164:	e49db004 	pop	{fp}		; (ldr fp, [sp], #4)
 168:	e12fff1e 	bx	lr

0000016c <mask_poll>:
 16c:	e52db004 	push	{fp}		; (str fp, [sp, #-4]!)
 170:	e28db000 	add	fp, sp, #0
 174:	e24dd014 	sub	sp, sp, #20
 178:	e50b0010 	str	r0, [fp, #-16]
 17c:	e50b1014 	str	r1, [fp, #-20]	; 0xffffffec
 180:	e51b3010 	ldr	r3, [fp, #-16]
 184:	e50b300c 	str	r3, [fp, #-12]
 188:	e3a03000 	mov	r3, #0
 18c:	e50b3008 	str	r3, [fp, #-8]
 190:	ea000009 	b	1bc <mask_poll+0x50>
 194:	e51b2008 	ldr	r2, [fp, #-8]
 198:	e3a03ce1 	mov	r3, #57600	; 0xe100
 19c:	e34035f5 	movt	r3, #1525	; 0x5f5
 1a0:	e1520003 	cmp	r2, r3
 1a4:	1a000001 	bne	1b0 <mask_poll+0x44>
 1a8:	e3e03000 	mvn	r3, #0
 1ac:	ea000009 	b	1d8 <mask_poll+0x6c>
 1b0:	e51b3008 	ldr	r3, [fp, #-8]
 1b4:	e2833001 	add	r3, r3, #1
 1b8:	e50b3008 	str	r3, [fp, #-8]
 1bc:	e51b300c 	ldr	r3, [fp, #-12]
 1c0:	e5932000 	ldr	r2, [r3]
 1c4:	e51b3014 	ldr	r3, [fp, #-20]	; 0xffffffec
 1c8:	e0033002 	and	r3, r3, r2
 1cc:	e3530000 	cmp	r3, #0
 1d0:	0affffef 	beq	194 <mask_poll+0x28>
 1d4:	e3a03001 	mov	r3, #1
 1d8:	e1a00003 	mov	r0, r3
 1dc:	e24bd000 	sub	sp, fp, #0
 1e0:	e49db004 	pop	{fp}		; (ldr fp, [sp], #4)
 1e4:	e12fff1e 	bx	lr

000001e8 <mask_read>:
 1e8:	e52db004 	push	{fp}		; (str fp, [sp, #-4]!)
 1ec:	e28db000 	add	fp, sp, #0
 1f0:	e24dd014 	sub	sp, sp, #20
 1f4:	e50b0010 	str	r0, [fp, #-16]
 1f8:	e50b1014 	str	r1, [fp, #-20]	; 0xffffffec
 1fc:	e51b3010 	ldr	r3, [fp, #-16]
 200:	e50b3008 	str	r3, [fp, #-8]
 204:	e51b3008 	ldr	r3, [fp, #-8]
 208:	e5932000 	ldr	r2, [r3]
 20c:	e51b3014 	ldr	r3, [fp, #-20]	; 0xffffffec
 210:	e0033002 	and	r3, r3, r2
 214:	e50b300c 	str	r3, [fp, #-12]
 218:	e51b300c 	ldr	r3, [fp, #-12]
 21c:	e1a00003 	mov	r0, r3
 220:	e24bd000 	sub	sp, fp, #0
 224:	e49db004 	pop	{fp}		; (ldr fp, [sp], #4)
 228:	e12fff1e 	bx	lr

0000022c <ps7_config>:
 22c:	e92d4800 	push	{fp, lr}
 230:	e28db004 	add	fp, sp, #4
 234:	e24dd070 	sub	sp, sp, #112	; 0x70
 238:	e50b0070 	str	r0, [fp, #-112]	; 0xffffff90
 23c:	e51b3070 	ldr	r3, [fp, #-112]	; 0xffffff90
 240:	e50b3008 	str	r3, [fp, #-8]
 244:	e3e03000 	mvn	r3, #0
 248:	e50b3010 	str	r3, [fp, #-16]
 24c:	e3a03000 	mov	r3, #0
 250:	e50b3014 	str	r3, [fp, #-20]	; 0xffffffec
 254:	ea00007a 	b	444 <ps7_config+0x218>
 258:	e51b3008 	ldr	r3, [fp, #-8]
 25c:	e5933000 	ldr	r3, [r3]
 260:	e203300f 	and	r3, r3, #15
 264:	e50b3018 	str	r3, [fp, #-24]	; 0xffffffe8
 268:	e51b3008 	ldr	r3, [fp, #-8]
 26c:	e5933000 	ldr	r3, [r3]
 270:	e1a03223 	lsr	r3, r3, #4
 274:	e50b301c 	str	r3, [fp, #-28]	; 0xffffffe4
 278:	e3a03000 	mov	r3, #0
 27c:	e50b300c 	str	r3, [fp, #-12]
 280:	ea00000d 	b	2bc <ps7_config+0x90>
 284:	e51b300c 	ldr	r3, [fp, #-12]
 288:	e2833001 	add	r3, r3, #1
 28c:	e1a03103 	lsl	r3, r3, #2
 290:	e51b2008 	ldr	r2, [fp, #-8]
 294:	e0823003 	add	r3, r2, r3
 298:	e5932000 	ldr	r2, [r3]
 29c:	e51b300c 	ldr	r3, [fp, #-12]
 2a0:	e1a03103 	lsl	r3, r3, #2
 2a4:	e24b1004 	sub	r1, fp, #4
 2a8:	e0813003 	add	r3, r1, r3
 2ac:	e5032068 	str	r2, [r3, #-104]	; 0xffffff98
 2b0:	e51b300c 	ldr	r3, [fp, #-12]
 2b4:	e2833001 	add	r3, r3, #1
 2b8:	e50b300c 	str	r3, [fp, #-12]
 2bc:	e51b200c 	ldr	r2, [fp, #-12]
 2c0:	e51b3018 	ldr	r3, [fp, #-24]	; 0xffffffe8
 2c4:	e1520003 	cmp	r2, r3
 2c8:	baffffed 	blt	284 <ps7_config+0x58>
 2cc:	e51b3018 	ldr	r3, [fp, #-24]	; 0xffffffe8
 2d0:	e2833001 	add	r3, r3, #1
 2d4:	e1a03103 	lsl	r3, r3, #2
 2d8:	e51b2008 	ldr	r2, [fp, #-8]
 2dc:	e0823003 	add	r3, r2, r3
 2e0:	e50b3008 	str	r3, [fp, #-8]
 2e4:	e51b301c 	ldr	r3, [fp, #-28]	; 0xffffffe4
 2e8:	e3530005 	cmp	r3, #5
 2ec:	979ff103 	ldrls	pc, [pc, r3, lsl #2]
 2f0:	ea000050 	b	438 <ps7_config+0x20c>
 2f4:	0000030c 	andeq	r0, r0, ip, lsl #6
 2f8:	00000318 	andeq	r0, r0, r8, lsl r3
 2fc:	00000330 	andeq	r0, r0, r0, lsr r3
 300:	00000350 	andeq	r0, r0, r0, asr r3
 304:	00000398 	muleq	r0, r8, r3
 308:	000003fc 	strdeq	r0, [r0], -ip
 30c:	e3a03000 	mov	r3, #0
 310:	e50b3010 	str	r3, [fp, #-16]
 314:	ea00004a 	b	444 <ps7_config+0x218>
 318:	e51b306c 	ldr	r3, [fp, #-108]	; 0xffffff94
 31c:	e50b3020 	str	r3, [fp, #-32]	; 0xffffffe0
 320:	e51b3020 	ldr	r3, [fp, #-32]	; 0xffffffe0
 324:	e3a02000 	mov	r2, #0
 328:	e5832000 	str	r2, [r3]
 32c:	ea000044 	b	444 <ps7_config+0x218>
 330:	e51b306c 	ldr	r3, [fp, #-108]	; 0xffffff94
 334:	e50b3020 	str	r3, [fp, #-32]	; 0xffffffe0
 338:	e51b3068 	ldr	r3, [fp, #-104]	; 0xffffff98
 33c:	e50b3024 	str	r3, [fp, #-36]	; 0xffffffdc
 340:	e51b3020 	ldr	r3, [fp, #-32]	; 0xffffffe0
 344:	e51b2024 	ldr	r2, [fp, #-36]	; 0xffffffdc
 348:	e5832000 	str	r2, [r3]
 34c:	ea00003c 	b	444 <ps7_config+0x218>
 350:	e51b306c 	ldr	r3, [fp, #-108]	; 0xffffff94
 354:	e50b3020 	str	r3, [fp, #-32]	; 0xffffffe0
 358:	e51b3068 	ldr	r3, [fp, #-104]	; 0xffffff98
 35c:	e50b3028 	str	r3, [fp, #-40]	; 0xffffffd8
 360:	e51b3064 	ldr	r3, [fp, #-100]	; 0xffffff9c
 364:	e50b3024 	str	r3, [fp, #-36]	; 0xffffffdc
 368:	e51b2024 	ldr	r2, [fp, #-36]	; 0xffffffdc
 36c:	e51b3028 	ldr	r3, [fp, #-40]	; 0xffffffd8
 370:	e0022003 	and	r2, r2, r3
 374:	e51b3020 	ldr	r3, [fp, #-32]	; 0xffffffe0
 378:	e5931000 	ldr	r1, [r3]
 37c:	e51b3028 	ldr	r3, [fp, #-40]	; 0xffffffd8
 380:	e1e03003 	mvn	r3, r3
 384:	e0033001 	and	r3, r3, r1
 388:	e1822003 	orr	r2, r2, r3
 38c:	e51b3020 	ldr	r3, [fp, #-32]	; 0xffffffe0
 390:	e5832000 	str	r2, [r3]
 394:	ea00002a 	b	444 <ps7_config+0x218>
 398:	e51b306c 	ldr	r3, [fp, #-108]	; 0xffffff94
 39c:	e50b3020 	str	r3, [fp, #-32]	; 0xffffffe0
 3a0:	e51b3068 	ldr	r3, [fp, #-104]	; 0xffffff98
 3a4:	e50b3028 	str	r3, [fp, #-40]	; 0xffffffd8
 3a8:	e3a03000 	mov	r3, #0
 3ac:	e50b3014 	str	r3, [fp, #-20]	; 0xffffffec
 3b0:	ea00000a 	b	3e0 <ps7_config+0x1b4>
 3b4:	e51b2014 	ldr	r2, [fp, #-20]	; 0xffffffec
 3b8:	e3a03ce1 	mov	r3, #57600	; 0xe100
 3bc:	e34035f5 	movt	r3, #1525	; 0x5f5
 3c0:	e1520003 	cmp	r2, r3
 3c4:	1a000002 	bne	3d4 <ps7_config+0x1a8>
 3c8:	e3a03002 	mov	r3, #2
 3cc:	e50b3010 	str	r3, [fp, #-16]
 3d0:	ea000008 	b	3f8 <ps7_config+0x1cc>
 3d4:	e51b3014 	ldr	r3, [fp, #-20]	; 0xffffffec
 3d8:	e2833001 	add	r3, r3, #1
 3dc:	e50b3014 	str	r3, [fp, #-20]	; 0xffffffec
 3e0:	e51b3020 	ldr	r3, [fp, #-32]	; 0xffffffe0
 3e4:	e5932000 	ldr	r2, [r3]
 3e8:	e51b3028 	ldr	r3, [fp, #-40]	; 0xffffffd8
 3ec:	e0033002 	and	r3, r3, r2
 3f0:	e3530000 	cmp	r3, #0
 3f4:	0affffee 	beq	3b4 <ps7_config+0x188>
 3f8:	ea000011 	b	444 <ps7_config+0x218>
 3fc:	e51b306c 	ldr	r3, [fp, #-108]	; 0xffffff94
 400:	e50b3020 	str	r3, [fp, #-32]	; 0xffffffe0
 404:	e51b3068 	ldr	r3, [fp, #-104]	; 0xffffff98
 408:	e50b3028 	str	r3, [fp, #-40]	; 0xffffffd8
 40c:	e51b0028 	ldr	r0, [fp, #-40]	; 0xffffffd8
 410:	ebfffffe 	bl	860 <get_number_of_cycles_for_delay>
 414:	e50b002c 	str	r0, [fp, #-44]	; 0xffffffd4
 418:	ebfffffe 	bl	8c4 <perf_reset_and_start_timer>
 41c:	e1a00000 	nop			; (mov r0, r0)
 420:	e51b3020 	ldr	r3, [fp, #-32]	; 0xffffffe0
 424:	e5932000 	ldr	r2, [r3]
 428:	e51b302c 	ldr	r3, [fp, #-44]	; 0xffffffd4
 42c:	e1520003 	cmp	r2, r3
 430:	3afffffa 	bcc	420 <ps7_config+0x1f4>
 434:	ea000002 	b	444 <ps7_config+0x218>
 438:	e3a03001 	mov	r3, #1
 43c:	e50b3010 	str	r3, [fp, #-16]
 440:	e1a00000 	nop			; (mov r0, r0)
 444:	e51b3010 	ldr	r3, [fp, #-16]
 448:	e3530000 	cmp	r3, #0
 44c:	baffff81 	blt	258 <ps7_config+0x2c>
 450:	e51b3010 	ldr	r3, [fp, #-16]
 454:	e1a00003 	mov	r0, r3
 458:	e24bd004 	sub	sp, fp, #4
 45c:	e8bd8800 	pop	{fp, pc}

00000460 <ps7_post_config>:
 460:	e92d4800 	push	{fp, lr}
 464:	e28db004 	add	fp, sp, #4
 468:	e24dd008 	sub	sp, sp, #8
 46c:	ebfffffe 	bl	c8 <ps7GetSiliconVersion>
 470:	e50b0008 	str	r0, [fp, #-8]
 474:	e3e03000 	mvn	r3, #0
 478:	e50b300c 	str	r3, [fp, #-12]
 47c:	e51b3008 	ldr	r3, [fp, #-8]
 480:	e3530000 	cmp	r3, #0
 484:	1a000008 	bne	4ac <ps7_post_config+0x4c>
 488:	e3000000 	movw	r0, #0
 48c:	e3400000 	movt	r0, #0
 490:	ebfffffe 	bl	22c <ps7_config>
 494:	e50b000c 	str	r0, [fp, #-12]
 498:	e51b300c 	ldr	r3, [fp, #-12]
 49c:	e3530000 	cmp	r3, #0
 4a0:	0a000016 	beq	500 <ps7_post_config+0xa0>
 4a4:	e51b300c 	ldr	r3, [fp, #-12]
 4a8:	ea000015 	b	504 <ps7_post_config+0xa4>
 4ac:	e51b3008 	ldr	r3, [fp, #-8]
 4b0:	e3530001 	cmp	r3, #1
 4b4:	1a000008 	bne	4dc <ps7_post_config+0x7c>
 4b8:	e3000000 	movw	r0, #0
 4bc:	e3400000 	movt	r0, #0
 4c0:	ebfffffe 	bl	22c <ps7_config>
 4c4:	e50b000c 	str	r0, [fp, #-12]
 4c8:	e51b300c 	ldr	r3, [fp, #-12]
 4cc:	e3530000 	cmp	r3, #0
 4d0:	0a00000a 	beq	500 <ps7_post_config+0xa0>
 4d4:	e51b300c 	ldr	r3, [fp, #-12]
 4d8:	ea000009 	b	504 <ps7_post_config+0xa4>
 4dc:	e3000000 	movw	r0, #0
 4e0:	e3400000 	movt	r0, #0
 4e4:	ebfffffe 	bl	22c <ps7_config>
 4e8:	e50b000c 	str	r0, [fp, #-12]
 4ec:	e51b300c 	ldr	r3, [fp, #-12]
 4f0:	e3530000 	cmp	r3, #0
 4f4:	0a000001 	beq	500 <ps7_post_config+0xa0>
 4f8:	e51b300c 	ldr	r3, [fp, #-12]
 4fc:	ea000000 	b	504 <ps7_post_config+0xa4>
 500:	e3a03000 	mov	r3, #0
 504:	e1a00003 	mov	r0, r3
 508:	e24bd004 	sub	sp, fp, #4
 50c:	e8bd8800 	pop	{fp, pc}

00000510 <ps7_debug>:
 510:	e92d4800 	push	{fp, lr}
 514:	e28db004 	add	fp, sp, #4
 518:	e24dd008 	sub	sp, sp, #8
 51c:	ebfffffe 	bl	c8 <ps7GetSiliconVersion>
 520:	e50b0008 	str	r0, [fp, #-8]
 524:	e3e03000 	mvn	r3, #0
 528:	e50b300c 	str	r3, [fp, #-12]
 52c:	e51b3008 	ldr	r3, [fp, #-8]
 530:	e3530000 	cmp	r3, #0
 534:	1a000008 	bne	55c <ps7_debug+0x4c>
 538:	e3000000 	movw	r0, #0
 53c:	e3400000 	movt	r0, #0
 540:	ebfffffe 	bl	22c <ps7_config>
 544:	e50b000c 	str	r0, [fp, #-12]
 548:	e51b300c 	ldr	r3, [fp, #-12]
 54c:	e3530000 	cmp	r3, #0
 550:	0a000016 	beq	5b0 <ps7_debug+0xa0>
 554:	e51b300c 	ldr	r3, [fp, #-12]
 558:	ea000015 	b	5b4 <ps7_debug+0xa4>
 55c:	e51b3008 	ldr	r3, [fp, #-8]
 560:	e3530001 	cmp	r3, #1
 564:	1a000008 	bne	58c <ps7_debug+0x7c>
 568:	e3000000 	movw	r0, #0
 56c:	e3400000 	movt	r0, #0
 570:	ebfffffe 	bl	22c <ps7_config>
 574:	e50b000c 	str	r0, [fp, #-12]
 578:	e51b300c 	ldr	r3, [fp, #-12]
 57c:	e3530000 	cmp	r3, #0
 580:	0a00000a 	beq	5b0 <ps7_debug+0xa0>
 584:	e51b300c 	ldr	r3, [fp, #-12]
 588:	ea000009 	b	5b4 <ps7_debug+0xa4>
 58c:	e3000000 	movw	r0, #0
 590:	e3400000 	movt	r0, #0
 594:	ebfffffe 	bl	22c <ps7_config>
 598:	e50b000c 	str	r0, [fp, #-12]
 59c:	e51b300c 	ldr	r3, [fp, #-12]
 5a0:	e3530000 	cmp	r3, #0
 5a4:	0a000001 	beq	5b0 <ps7_debug+0xa0>
 5a8:	e51b300c 	ldr	r3, [fp, #-12]
 5ac:	ea000000 	b	5b4 <ps7_debug+0xa4>
 5b0:	e3a03000 	mov	r3, #0
 5b4:	e1a00003 	mov	r0, r3
 5b8:	e24bd004 	sub	sp, fp, #4
 5bc:	e8bd8800 	pop	{fp, pc}

000005c0 <ps7_init>:
 5c0:	e92d4800 	push	{fp, lr}
 5c4:	e28db004 	add	fp, sp, #4
 5c8:	e24dd008 	sub	sp, sp, #8
 5cc:	ebfffffe 	bl	c8 <ps7GetSiliconVersion>
 5d0:	e50b0008 	str	r0, [fp, #-8]
 5d4:	e51b3008 	ldr	r3, [fp, #-8]
 5d8:	e3530000 	cmp	r3, #0
 5dc:	1a000019 	bne	648 <ps7_init+0x88>
 5e0:	e3003000 	movw	r3, #0
 5e4:	e3403000 	movt	r3, #0
 5e8:	e3002000 	movw	r2, #0
 5ec:	e3402000 	movt	r2, #0
 5f0:	e5832000 	str	r2, [r3]
 5f4:	e3003000 	movw	r3, #0
 5f8:	e3403000 	movt	r3, #0
 5fc:	e3002000 	movw	r2, #0
 600:	e3402000 	movt	r2, #0
 604:	e5832000 	str	r2, [r3]
 608:	e3003000 	movw	r3, #0
 60c:	e3403000 	movt	r3, #0
 610:	e3002000 	movw	r2, #0
 614:	e3402000 	movt	r2, #0
 618:	e5832000 	str	r2, [r3]
 61c:	e3003000 	movw	r3, #0
 620:	e3403000 	movt	r3, #0
 624:	e3002000 	movw	r2, #0
 628:	e3402000 	movt	r2, #0
 62c:	e5832000 	str	r2, [r3]
 630:	e3003000 	movw	r3, #0
 634:	e3403000 	movt	r3, #0
 638:	e3002000 	movw	r2, #0
 63c:	e3402000 	movt	r2, #0
 640:	e5832000 	str	r2, [r3]
 644:	ea000035 	b	720 <ps7_init+0x160>
 648:	e51b3008 	ldr	r3, [fp, #-8]
 64c:	e3530001 	cmp	r3, #1
 650:	1a000019 	bne	6bc <ps7_init+0xfc>
 654:	e3003000 	movw	r3, #0
 658:	e3403000 	movt	r3, #0
 65c:	e3002000 	movw	r2, #0
 660:	e3402000 	movt	r2, #0
 664:	e5832000 	str	r2, [r3]
 668:	e3003000 	movw	r3, #0
 66c:	e3403000 	movt	r3, #0
 670:	e3002000 	movw	r2, #0
 674:	e3402000 	movt	r2, #0
 678:	e5832000 	str	r2, [r3]
 67c:	e3003000 	movw	r3, #0
 680:	e3403000 	movt	r3, #0
 684:	e3002000 	movw	r2, #0
 688:	e3402000 	movt	r2, #0
 68c:	e5832000 	str	r2, [r3]
 690:	e3003000 	movw	r3, #0
 694:	e3403000 	movt	r3, #0
 698:	e3002000 	movw	r2, #0
 69c:	e3402000 	movt	r2, #0
 6a0:	e5832000 	str	r2, [r3]
 6a4:	e3003000 	movw	r3, #0
 6a8:	e3403000 	movt	r3, #0
 6ac:	e3002000 	movw	r2, #0
 6b0:	e3402000 	movt	r2, #0
 6b4:	e5832000 	str	r2, [r3]
 6b8:	ea000018 	b	720 <ps7_init+0x160>
 6bc:	e3003000 	movw	r3, #0
 6c0:	e3403000 	movt	r3, #0
 6c4:	e3002000 	movw	r2, #0
 6c8:	e3402000 	movt	r2, #0
 6cc:	e5832000 	str	r2, [r3]
 6d0:	e3003000 	movw	r3, #0
 6d4:	e3403000 	movt	r3, #0
 6d8:	e3002000 	movw	r2, #0
 6dc:	e3402000 	movt	r2, #0
 6e0:	e5832000 	str	r2, [r3]
 6e4:	e3003000 	movw	r3, #0
 6e8:	e3403000 	movt	r3, #0
 6ec:	e3002000 	movw	r2, #0
 6f0:	e3402000 	movt	r2, #0
 6f4:	e5832000 	str	r2, [r3]
 6f8:	e3003000 	movw	r3, #0
 6fc:	e3403000 	movt	r3, #0
 700:	e3002000 	movw	r2, #0
 704:	e3402000 	movt	r2, #0
 708:	e5832000 	str	r2, [r3]
 70c:	e3003000 	movw	r3, #0
 710:	e3403000 	movt	r3, #0
 714:	e3002000 	movw	r2, #0
 718:	e3402000 	movt	r2, #0
 71c:	e5832000 	str	r2, [r3]
 720:	e3003000 	movw	r3, #0
 724:	e3403000 	movt	r3, #0
 728:	e5933000 	ldr	r3, [r3]
 72c:	e1a00003 	mov	r0, r3
 730:	ebfffffe 	bl	22c <ps7_config>
 734:	e50b000c 	str	r0, [fp, #-12]
 738:	e51b300c 	ldr	r3, [fp, #-12]
 73c:	e3530000 	cmp	r3, #0
 740:	0a000001 	beq	74c <ps7_init+0x18c>
 744:	e51b300c 	ldr	r3, [fp, #-12]
 748:	ea00002c 	b	800 <ps7_init+0x240>
 74c:	e3003000 	movw	r3, #0
 750:	e3403000 	movt	r3, #0
 754:	e5933000 	ldr	r3, [r3]
 758:	e1a00003 	mov	r0, r3
 75c:	ebfffffe 	bl	22c <ps7_config>
 760:	e50b000c 	str	r0, [fp, #-12]
 764:	e51b300c 	ldr	r3, [fp, #-12]
 768:	e3530000 	cmp	r3, #0
 76c:	0a000001 	beq	778 <ps7_init+0x1b8>
 770:	e51b300c 	ldr	r3, [fp, #-12]
 774:	ea000021 	b	800 <ps7_init+0x240>
 778:	e3003000 	movw	r3, #0
 77c:	e3403000 	movt	r3, #0
 780:	e5933000 	ldr	r3, [r3]
 784:	e1a00003 	mov	r0, r3
 788:	ebfffffe 	bl	22c <ps7_config>
 78c:	e50b000c 	str	r0, [fp, #-12]
 790:	e51b300c 	ldr	r3, [fp, #-12]
 794:	e3530000 	cmp	r3, #0
 798:	0a000001 	beq	7a4 <ps7_init+0x1e4>
 79c:	e51b300c 	ldr	r3, [fp, #-12]
 7a0:	ea000016 	b	800 <ps7_init+0x240>
 7a4:	e3003000 	movw	r3, #0
 7a8:	e3403000 	movt	r3, #0
 7ac:	e5933000 	ldr	r3, [r3]
 7b0:	e1a00003 	mov	r0, r3
 7b4:	ebfffffe 	bl	22c <ps7_config>
 7b8:	e50b000c 	str	r0, [fp, #-12]
 7bc:	e51b300c 	ldr	r3, [fp, #-12]
 7c0:	e3530000 	cmp	r3, #0
 7c4:	0a000001 	beq	7d0 <ps7_init+0x210>
 7c8:	e51b300c 	ldr	r3, [fp, #-12]
 7cc:	ea00000b 	b	800 <ps7_init+0x240>
 7d0:	e3003000 	movw	r3, #0
 7d4:	e3403000 	movt	r3, #0
 7d8:	e5933000 	ldr	r3, [r3]
 7dc:	e1a00003 	mov	r0, r3
 7e0:	ebfffffe 	bl	22c <ps7_config>
 7e4:	e50b000c 	str	r0, [fp, #-12]
 7e8:	e51b300c 	ldr	r3, [fp, #-12]
 7ec:	e3530000 	cmp	r3, #0
 7f0:	0a000001 	beq	7fc <ps7_init+0x23c>
 7f4:	e51b300c 	ldr	r3, [fp, #-12]
 7f8:	ea000000 	b	800 <ps7_init+0x240>
 7fc:	e3a03000 	mov	r3, #0
 800:	e1a00003 	mov	r0, r3
 804:	e24bd004 	sub	sp, fp, #4
 808:	e8bd8800 	pop	{fp, pc}

0000080c <perf_start_clock>:
 80c:	e52db004 	push	{fp}		; (str fp, [sp, #-4]!)
 810:	e28db000 	add	fp, sp, #0
 814:	e3a03f82 	mov	r3, #520	; 0x208
 818:	e34f38f0 	movt	r3, #63728	; 0xf8f0
 81c:	e3a02009 	mov	r2, #9
 820:	e5832000 	str	r2, [r3]
 824:	e24bd000 	sub	sp, fp, #0
 828:	e49db004 	pop	{fp}		; (ldr fp, [sp], #4)
 82c:	e12fff1e 	bx	lr

00000830 <perf_reset_clock>:
 830:	e92d4800 	push	{fp, lr}
 834:	e28db004 	add	fp, sp, #4
 838:	ebfffffe 	bl	8a0 <perf_disable_clock>
 83c:	e3a03c02 	mov	r3, #512	; 0x200
 840:	e34f38f0 	movt	r3, #63728	; 0xf8f0
 844:	e3a02000 	mov	r2, #0
 848:	e5832000 	str	r2, [r3]
 84c:	e3a03f81 	mov	r3, #516	; 0x204
 850:	e34f38f0 	movt	r3, #63728	; 0xf8f0
 854:	e3a02000 	mov	r2, #0
 858:	e5832000 	str	r2, [r3]
 85c:	e8bd8800 	pop	{fp, pc}

00000860 <get_number_of_cycles_for_delay>:
 860:	e52db004 	push	{fp}		; (str fp, [sp, #-4]!)
 864:	e28db000 	add	fp, sp, #0
 868:	e24dd00c 	sub	sp, sp, #12
 86c:	e50b0008 	str	r0, [fp, #-8]
 870:	e51b2008 	ldr	r2, [fp, #-8]
 874:	e30836bf 	movw	r3, #34495	; 0x86bf
 878:	e34237bc 	movt	r3, #10172	; 0x27bc
 87c:	e0020293 	mul	r2, r3, r2
 880:	e3043dd3 	movw	r3, #19923	; 0x4dd3
 884:	e3413062 	movt	r3, #4194	; 0x1062
 888:	e0832392 	umull	r2, r3, r2, r3
 88c:	e1a033a3 	lsr	r3, r3, #7
 890:	e1a00003 	mov	r0, r3
 894:	e24bd000 	sub	sp, fp, #0
 898:	e49db004 	pop	{fp}		; (ldr fp, [sp], #4)
 89c:	e12fff1e 	bx	lr

000008a0 <perf_disable_clock>:
 8a0:	e52db004 	push	{fp}		; (str fp, [sp, #-4]!)
 8a4:	e28db000 	add	fp, sp, #0
 8a8:	e3a03f82 	mov	r3, #520	; 0x208
 8ac:	e34f38f0 	movt	r3, #63728	; 0xf8f0
 8b0:	e3a02000 	mov	r2, #0
 8b4:	e5832000 	str	r2, [r3]
 8b8:	e24bd000 	sub	sp, fp, #0
 8bc:	e49db004 	pop	{fp}		; (ldr fp, [sp], #4)
 8c0:	e12fff1e 	bx	lr

000008c4 <perf_reset_and_start_timer>:
 8c4:	e92d4800 	push	{fp, lr}
 8c8:	e28db004 	add	fp, sp, #4
 8cc:	ebfffffe 	bl	830 <perf_reset_clock>
 8d0:	ebfffffe 	bl	80c <perf_start_clock>
 8d4:	e8bd8800 	pop	{fp, pc}
