
main.o:     file format elf32-littlearm


Disassembly of section .group:

00000000 <wm4.0.70229e57302588df81490d029754edcf>:
   0:	00000001 	andeq	r0, r0, r1
   4:	00000035 	andeq	r0, r0, r5, lsr r0

Disassembly of section .group:

00000000 <wm4.features.h.22.6a4ca7cd053637cc1d0db6c16f39b2d7>:
   0:	00000001 	andeq	r0, r0, r1
   4:	00000037 	andeq	r0, r0, r7, lsr r0

Disassembly of section .group:

00000000 <wm4._default_types.h.15.933e8edd27a65e0b69af4a865eb623d2>:
   0:	00000001 	andeq	r0, r0, r1
   4:	00000039 	andeq	r0, r0, r9, lsr r0

Disassembly of section .group:

00000000 <wm4.stdint.h.20.4eb57b92550748a093dd74c0298bbe15>:
   0:	00000001 	andeq	r0, r0, r1
   4:	0000003b 	andeq	r0, r0, fp, lsr r0

Disassembly of section .group:

00000000 <wm4.stddef.h.39.daafd3d79fe2f3a84d2d73d7d4e706f8>:
   0:	00000001 	andeq	r0, r0, r1
   4:	0000003d 	andeq	r0, r0, sp, lsr r0

Disassembly of section .group:

00000000 <wm4.xil_types.h.63.cca46debbe27b9a192cdfc446df93736>:
   0:	00000001 	andeq	r0, r0, r1
   4:	0000003f 	andeq	r0, r0, pc, lsr r0

Disassembly of section .group:

00000000 <wm4.xreg_cortexa9.h.53.7f0f4f5ab3b927ed493593e9142d89ee>:
   0:	00000001 	andeq	r0, r0, r1
   4:	00000041 	andeq	r0, r0, r1, asr #32

Disassembly of section .group:

00000000 <wm4.xpseudo_asm_gcc.h.51.05380128081901e1409368df3ee1dbf8>:
   0:	00000001 	andeq	r0, r0, r1
   4:	00000043 	andeq	r0, r0, r3, asr #32

Disassembly of section .group:

00000000 <wm4.newlib.h.8.fec018e441fee7bfa1923812ad010f97>:
   0:	00000001 	andeq	r0, r0, r1
   4:	00000045 	andeq	r0, r0, r5, asr #32

Disassembly of section .group:

00000000 <wm4.config.h.219.02e4d33cab7419d0afccfa622b3b7ccc>:
   0:	00000001 	andeq	r0, r0, r1
   4:	00000047 	andeq	r0, r0, r7, asr #32

Disassembly of section .group:

00000000 <wm4._ansi.h.23.5644b60c990a4800b02a6e654e88f93a>:
   0:	00000001 	andeq	r0, r0, r1
   4:	00000049 	andeq	r0, r0, r9, asr #32

Disassembly of section .group:

00000000 <wm4.ctype.h.69.cbd5fb729cb91642f9760ac3499dcca8>:
   0:	00000001 	andeq	r0, r0, r1
   4:	0000004b 	andeq	r0, r0, fp, asr #32

Disassembly of section .group:

00000000 <wm4.lock.h.2.9bc98482741e5e2a9450b12934a684ea>:
   0:	00000001 	andeq	r0, r0, r1
   4:	0000004d 	andeq	r0, r0, sp, asr #32

Disassembly of section .group:

00000000 <wm4._types.h.54.ae6c411e3055f99adfc1ecfb6e957ea6>:
   0:	00000001 	andeq	r0, r0, r1
   4:	0000004f 	andeq	r0, r0, pc, asr #32

Disassembly of section .group:

00000000 <wm4.stddef.h.158.61317cdbfb4026324507d123a50b0fd6>:
   0:	00000001 	andeq	r0, r0, r1
   4:	00000051 	andeq	r0, r0, r1, asr r0

Disassembly of section .group:

00000000 <wm4.reent.h.17.d863fcf92595baadf8ef09675dda92ed>:
   0:	00000001 	andeq	r0, r0, r1
   4:	00000053 	andeq	r0, r0, r3, asr r0

Disassembly of section .group:

00000000 <wm4.cdefs.h.47.339223046f475c9f2d5db3a9118d7c65>:
   0:	00000001 	andeq	r0, r0, r1
   4:	00000055 	andeq	r0, r0, r5, asr r0

Disassembly of section .group:

00000000 <wm4.string.h.15.dab3980bf35408a4c507182805e2de3a>:
   0:	00000001 	andeq	r0, r0, r1
   4:	00000057 	andeq	r0, r0, r7, asr r0

Disassembly of section .group:

00000000 <wm4.stddef.h.158.a7efb00f6cbc6f43213b50e183c9830c>:
   0:	00000001 	andeq	r0, r0, r1
   4:	00000059 	andeq	r0, r0, r9, asr r0

Disassembly of section .group:

00000000 <wm4.string.h.126.6ff3aa59129e7f66b2c273baf353e066>:
   0:	00000001 	andeq	r0, r0, r1
   4:	0000005b 	andeq	r0, r0, fp, asr r0

Disassembly of section .group:

00000000 <wm4.stdarg.h.31.72c3aa8d68b291953fa52b9471bcdff7>:
   0:	00000001 	andeq	r0, r0, r1
   4:	0000005d 	andeq	r0, r0, sp, asr r0

Disassembly of section .group:

00000000 <wm4.xparameters.h.2.ffbd2f46716f18fa3a5ac07419ae9f93>:
   0:	00000001 	andeq	r0, r0, r1
   4:	0000005f 	andeq	r0, r0, pc, asr r0

Disassembly of section .group:

00000000 <wm4.xparameters_ps.h.57.40db1c3084240736bf45eeb8d1eb0792>:
   0:	00000001 	andeq	r0, r0, r1
   4:	00000061 	andeq	r0, r0, r1, rrx

Disassembly of section .group:

00000000 <wm4.xparameters.h.18.387dedca06612774d0cf5b4ee907e569>:
   0:	00000001 	andeq	r0, r0, r1
   4:	00000063 	andeq	r0, r0, r3, rrx

Disassembly of section .group:

00000000 <wm4.xil_io.h.74.e5593f207d32a3a47e53e492789df0c3>:
   0:	00000001 	andeq	r0, r0, r1
   4:	00000065 	andeq	r0, r0, r5, rrx

Disassembly of section .group:

00000000 <wm4.xparameters.h.2.ce6d4237f5e0d0d87ddb133572abf8d3>:
   0:	00000001 	andeq	r0, r0, r1
   4:	00000067 	andeq	r0, r0, r7, rrx

Disassembly of section .group:

00000000 <wm4.xdevcfg_hw.h.75.31d16ea0761e1069d355076e7ec14a3e>:
   0:	00000001 	andeq	r0, r0, r1
   4:	00000069 	andeq	r0, r0, r9, rrx

Disassembly of section .group:

00000000 <wm4.xil_assert.h.50.20a536155dece8f30b906ec6805959c6>:
   0:	00000001 	andeq	r0, r0, r1
   4:	0000006b 	andeq	r0, r0, fp, rrx

Disassembly of section .group:

00000000 <wm4.xstatus.h.59.50540598b1ce5b971547865edcbedd2d>:
   0:	00000001 	andeq	r0, r0, r1
   4:	0000006d 	andeq	r0, r0, sp, rrx

Disassembly of section .group:

00000000 <wm4.xdevcfg.h.173.20b891f02beed60429770d56a790b7c0>:
   0:	00000001 	andeq	r0, r0, r1
   4:	0000006f 	andeq	r0, r0, pc, rrx

Disassembly of section .group:

00000000 <wm4.pcap.h.67.346e5ba589cfd3ad5bfd31f801a14160>:
   0:	00000001 	andeq	r0, r0, r1
   4:	00000071 	andeq	r0, r0, r1, ror r0

Disassembly of section .group:

00000000 <wm4.fsbl_debug.h.53.56117e478fc96675c16bee5d1a17a19a>:
   0:	00000001 	andeq	r0, r0, r1
   4:	00000073 	andeq	r0, r0, r3, ror r0

Disassembly of section .group:

00000000 <wm4.ps7_init.h.58.a1681de392ec9d19267c75d60f9f2e78>:
   0:	00000001 	andeq	r0, r0, r1
   4:	00000075 	andeq	r0, r0, r5, ror r0

Disassembly of section .group:

00000000 <wm4.fsbl.h.316.11f3c95e01be784f92cd841c8a9656a4>:
   0:	00000001 	andeq	r0, r0, r1
   4:	00000077 	andeq	r0, r0, r7, ror r0

Disassembly of section .group:

00000000 <wm4.qspi.h.54.a95b9ff6f3ed873b48b544d7de44f5a4>:
   0:	00000001 	andeq	r0, r0, r1
   4:	00000079 	andeq	r0, r0, r9, ror r0

Disassembly of section .group:

00000000 <wm4.nor.h.53.d8478dce4db8a573010df38d22279b0e>:
   0:	00000001 	andeq	r0, r0, r1
   4:	0000007b 	andeq	r0, r0, fp, ror r0

Disassembly of section .group:

00000000 <wm4.image_mover.h.55.050bbccf31bcc200b77ee18c74ade858>:
   0:	00000001 	andeq	r0, r0, r1
   4:	0000007d 	andeq	r0, r0, sp, ror r0

Disassembly of section .group:

00000000 <wm4.xil_exception.h.52.fc935dc63656da5a52712e4c4bd1e5ef>:
   0:	00000001 	andeq	r0, r0, r1
   4:	0000007f 	andeq	r0, r0, pc, ror r0

Disassembly of section .group:

00000000 <wm4.xtime_l.h.70.5171f8e98024bec24423a441cb2beea2>:
   0:	00000001 	andeq	r0, r0, r1
   4:	00000081 	andeq	r0, r0, r1, lsl #1

Disassembly of section .group:

00000000 <wm4.xuartps_hw.h.60.1472b7f1b5fe5af2ca38d1983449de29>:
   0:	00000001 	andeq	r0, r0, r1
   4:	00000083 	andeq	r0, r0, r3, lsl #1

Disassembly of section .text:

00000000 <main>:
   0:	e92d4800 	push	{fp, lr}
   4:	e28db004 	add	fp, sp, #4
   8:	e24dd028 	sub	sp, sp, #40	; 0x28
   c:	e3a03000 	mov	r3, #0
  10:	e50b3008 	str	r3, [fp, #-8]
  14:	e3a03000 	mov	r3, #0
  18:	e50b300c 	str	r3, [fp, #-12]
  1c:	e3a03000 	mov	r3, #0
  20:	e50b3010 	str	r3, [fp, #-16]
  24:	ebfffffe 	bl	0 <ps7_init>
  28:	e1a03000 	mov	r3, r0
  2c:	e50b3010 	str	r3, [fp, #-16]
  30:	e51b3010 	ldr	r3, [fp, #-16]
  34:	e3530000 	cmp	r3, #0
  38:	0a00000a 	beq	68 <main+0x68>
  3c:	e51b0010 	ldr	r0, [fp, #-16]
  40:	ebfffffe 	bl	0 <getPS7MessageInfo>
  44:	e1a03000 	mov	r3, r0
  48:	e3000000 	movw	r0, #0
  4c:	e3400000 	movt	r0, #0
  50:	e1a01003 	mov	r1, r3
  54:	ebfffffe 	bl	0 <xil_printf>
  58:	e30a0012 	movw	r0, #40978	; 0xa012
  5c:	ebfffffe 	bl	154 <OutputStatus>
  60:	ebfffffe 	bl	0 <FsblHookFallback>
  64:	ea000006 	b	84 <main+0x84>
  68:	e51b0010 	ldr	r0, [fp, #-16]
  6c:	ebfffffe 	bl	0 <getPS7MessageInfo>
  70:	e1a03000 	mov	r3, r0
  74:	e3000000 	movw	r0, #0
  78:	e3400000 	movt	r0, #0
  7c:	e1a01003 	mov	r1, r3
  80:	ebfffffe 	bl	0 <xil_printf>
  84:	e3a00008 	mov	r0, #8
  88:	e34f0800 	movt	r0, #63488	; 0xf800
  8c:	e30d1f0d 	movw	r1, #57101	; 0xdf0d
  90:	e34d1f0d 	movt	r1, #57101	; 0xdf0d
  94:	ebfffffe 	bl	0 <Xil_Out32>
  98:	f2c00010 	vmov.i32	d16, #0	; 0x00000000
  9c:	ed4b0b09 	vstr	d16, [fp, #-36]	; 0xffffffdc
  a0:	e24b3024 	sub	r3, fp, #36	; 0x24
  a4:	e1a00003 	mov	r0, r3
  a8:	ebfffffe 	bl	564 <FsblGetGlobalTime>
  ac:	ebfffffe 	bl	0 <Xil_DCacheFlush>
  b0:	ebfffffe 	bl	0 <Xil_DCacheDisable>
  b4:	eb0000a0 	bl	33c <RegisterHandlers>
  b8:	e3000000 	movw	r0, #0
  bc:	e3400000 	movt	r0, #0
  c0:	ebfffffe 	bl	0 <xil_printf>
  c4:	e3003000 	movw	r3, #0
  c8:	e3403000 	movt	r3, #0
  cc:	e58d3000 	str	r3, [sp]
  d0:	e3000000 	movw	r0, #0
  d4:	e3400000 	movt	r0, #0
  d8:	e30017df 	movw	r1, #2015	; 0x7df
  dc:	e3a02002 	mov	r2, #2
  e0:	e3003000 	movw	r3, #0
  e4:	e3403000 	movt	r3, #0
  e8:	ebfffffe 	bl	0 <xil_printf>
  ec:	f2c00010 	vmov.i32	d16, #0	; 0x00000000
  f0:	ed4b0b07 	vstr	d16, [fp, #-28]	; 0xffffffe4
  f4:	e3000000 	movw	r0, #0
  f8:	e3400000 	movt	r0, #0
  fc:	ebfffffe 	bl	0 <xil_printf>
 100:	e14b22d4 	ldrd	r2, [fp, #-36]	; 0xffffffdc
 104:	e1a00002 	mov	r0, r2
 108:	e1a01003 	mov	r1, r3
 10c:	e14b21dc 	ldrd	r2, [fp, #-28]	; 0xffffffe4
 110:	ebfffffe 	bl	584 <FsblMeasurePerfTime>
 114:	e51b3010 	ldr	r3, [fp, #-16]
 118:	e1a00003 	mov	r0, r3
 11c:	e24bd004 	sub	sp, fp, #4
 120:	e8bd8800 	pop	{fp, pc}

00000124 <FsblFallback>:
 124:	e52db004 	push	{fp}		; (str fp, [sp, #-4]!)
 128:	e28db000 	add	fp, sp, #0
 12c:	e24bd000 	sub	sp, fp, #0
 130:	e49db004 	pop	{fp}		; (ldr fp, [sp], #4)
 134:	e12fff1e 	bx	lr

00000138 <FsblHandoff>:
 138:	e52db004 	push	{fp}		; (str fp, [sp, #-4]!)
 13c:	e28db000 	add	fp, sp, #0
 140:	e24dd00c 	sub	sp, sp, #12
 144:	e50b0008 	str	r0, [fp, #-8]
 148:	e24bd000 	sub	sp, fp, #0
 14c:	e49db004 	pop	{fp}		; (ldr fp, [sp], #4)
 150:	e12fff1e 	bx	lr

00000154 <OutputStatus>:
 154:	e92d4800 	push	{fp, lr}
 158:	e28db004 	add	fp, sp, #4
 15c:	e24dd010 	sub	sp, sp, #16
 160:	e50b0010 	str	r0, [fp, #-16]
 164:	e3a03000 	mov	r3, #0
 168:	e50b3008 	str	r3, [fp, #-8]
 16c:	e3000000 	movw	r0, #0
 170:	e3400000 	movt	r0, #0
 174:	e51b1010 	ldr	r1, [fp, #-16]
 178:	ebfffffe 	bl	0 <xil_printf>
 17c:	e301002c 	movw	r0, #4140	; 0x102c
 180:	e34e0000 	movt	r0, #57344	; 0xe000
 184:	ebfffffe 	bl	0 <Xil_In32>
 188:	e50b0008 	str	r0, [fp, #-8]
 18c:	ea000003 	b	1a0 <OutputStatus+0x4c>
 190:	e301002c 	movw	r0, #4140	; 0x102c
 194:	e34e0000 	movt	r0, #57344	; 0xe000
 198:	ebfffffe 	bl	0 <Xil_In32>
 19c:	e50b0008 	str	r0, [fp, #-8]
 1a0:	e51b3008 	ldr	r3, [fp, #-8]
 1a4:	e2033008 	and	r3, r3, #8
 1a8:	e3530000 	cmp	r3, #0
 1ac:	0afffff7 	beq	190 <OutputStatus+0x3c>
 1b0:	e24bd004 	sub	sp, fp, #4
 1b4:	e8bd8800 	pop	{fp, pc}

000001b8 <ErrorLockdown>:
 1b8:	e92d4800 	push	{fp, lr}
 1bc:	e28db004 	add	fp, sp, #4
 1c0:	e24dd008 	sub	sp, sp, #8
 1c4:	e50b0008 	str	r0, [fp, #-8]
 1c8:	e51b0008 	ldr	r0, [fp, #-8]
 1cc:	ebfffffe 	bl	154 <OutputStatus>
 1d0:	ebfffffe 	bl	124 <FsblFallback>
 1d4:	e24bd004 	sub	sp, fp, #4
 1d8:	e8bd8800 	pop	{fp, pc}

000001dc <memcpy_rom>:
 1dc:	e52db004 	push	{fp}		; (str fp, [sp, #-4]!)
 1e0:	e28db000 	add	fp, sp, #0
 1e4:	e24dd01c 	sub	sp, sp, #28
 1e8:	e50b0010 	str	r0, [fp, #-16]
 1ec:	e50b1014 	str	r1, [fp, #-20]	; 0xffffffec
 1f0:	e50b2018 	str	r2, [fp, #-24]	; 0xffffffe8
 1f4:	e51b3010 	ldr	r3, [fp, #-16]
 1f8:	e50b3008 	str	r3, [fp, #-8]
 1fc:	e51b3014 	ldr	r3, [fp, #-20]	; 0xffffffec
 200:	e50b300c 	str	r3, [fp, #-12]
 204:	ea000007 	b	228 <memcpy_rom+0x4c>
 208:	e51b3008 	ldr	r3, [fp, #-8]
 20c:	e2832001 	add	r2, r3, #1
 210:	e50b2008 	str	r2, [fp, #-8]
 214:	e51b200c 	ldr	r2, [fp, #-12]
 218:	e2821001 	add	r1, r2, #1
 21c:	e50b100c 	str	r1, [fp, #-12]
 220:	e5d22000 	ldrb	r2, [r2]
 224:	e5c32000 	strb	r2, [r3]
 228:	e51b3018 	ldr	r3, [fp, #-24]	; 0xffffffe8
 22c:	e2432001 	sub	r2, r3, #1
 230:	e50b2018 	str	r2, [fp, #-24]	; 0xffffffe8
 234:	e3530000 	cmp	r3, #0
 238:	1afffff2 	bne	208 <memcpy_rom+0x2c>
 23c:	e51b3010 	ldr	r3, [fp, #-16]
 240:	e1a00003 	mov	r0, r3
 244:	e24bd000 	sub	sp, fp, #0
 248:	e49db004 	pop	{fp}		; (ldr fp, [sp], #4)
 24c:	e12fff1e 	bx	lr

00000250 <strcpy_rom>:
 250:	e52db004 	push	{fp}		; (str fp, [sp, #-4]!)
 254:	e28db000 	add	fp, sp, #0
 258:	e24dd014 	sub	sp, sp, #20
 25c:	e50b0010 	str	r0, [fp, #-16]
 260:	e50b1014 	str	r1, [fp, #-20]	; 0xffffffec
 264:	e3a03000 	mov	r3, #0
 268:	e50b3008 	str	r3, [fp, #-8]
 26c:	ea00000a 	b	29c <strcpy_rom+0x4c>
 270:	e51b2010 	ldr	r2, [fp, #-16]
 274:	e51b3008 	ldr	r3, [fp, #-8]
 278:	e0823003 	add	r3, r2, r3
 27c:	e51b1014 	ldr	r1, [fp, #-20]	; 0xffffffec
 280:	e51b2008 	ldr	r2, [fp, #-8]
 284:	e0812002 	add	r2, r1, r2
 288:	e5d22000 	ldrb	r2, [r2]
 28c:	e5c32000 	strb	r2, [r3]
 290:	e51b3008 	ldr	r3, [fp, #-8]
 294:	e2833001 	add	r3, r3, #1
 298:	e50b3008 	str	r3, [fp, #-8]
 29c:	e51b2014 	ldr	r2, [fp, #-20]	; 0xffffffec
 2a0:	e51b3008 	ldr	r3, [fp, #-8]
 2a4:	e0823003 	add	r3, r2, r3
 2a8:	e5d33000 	ldrb	r3, [r3]
 2ac:	e3530000 	cmp	r3, #0
 2b0:	1affffee 	bne	270 <strcpy_rom+0x20>
 2b4:	e51b2010 	ldr	r2, [fp, #-16]
 2b8:	e51b3008 	ldr	r3, [fp, #-8]
 2bc:	e0823003 	add	r3, r2, r3
 2c0:	e3a02000 	mov	r2, #0
 2c4:	e5c32000 	strb	r2, [r3]
 2c8:	e51b3010 	ldr	r3, [fp, #-16]
 2cc:	e1a00003 	mov	r0, r3
 2d0:	e24bd000 	sub	sp, fp, #0
 2d4:	e49db004 	pop	{fp}		; (ldr fp, [sp], #4)
 2d8:	e12fff1e 	bx	lr

000002dc <MarkFSBLIn>:
 2dc:	e92d4800 	push	{fp, lr}
 2e0:	e28db004 	add	fp, sp, #4
 2e4:	e3a00f96 	mov	r0, #600	; 0x258
 2e8:	e34f0800 	movt	r0, #63488	; 0xf800
 2ec:	ebfffffe 	bl	0 <Xil_In32>
 2f0:	e1a03000 	mov	r3, r0
 2f4:	e3833206 	orr	r3, r3, #1610612736	; 0x60000000
 2f8:	e3a00f96 	mov	r0, #600	; 0x258
 2fc:	e34f0800 	movt	r0, #63488	; 0xf800
 300:	e1a01003 	mov	r1, r3
 304:	ebfffffe 	bl	0 <Xil_Out32>
 308:	e8bd8800 	pop	{fp, pc}

0000030c <ClearFSBLIn>:
 30c:	e92d4800 	push	{fp, lr}
 310:	e28db004 	add	fp, sp, #4
 314:	e3a00f96 	mov	r0, #600	; 0x258
 318:	e34f0800 	movt	r0, #63488	; 0xf800
 31c:	ebfffffe 	bl	0 <Xil_In32>
 320:	e1a03000 	mov	r3, r0
 324:	e3c3320f 	bic	r3, r3, #-268435456	; 0xf0000000
 328:	e3a00f96 	mov	r0, #600	; 0x258
 32c:	e34f0800 	movt	r0, #63488	; 0xf800
 330:	e1a01003 	mov	r1, r3
 334:	ebfffffe 	bl	0 <Xil_Out32>
 338:	e8bd8800 	pop	{fp, pc}

0000033c <RegisterHandlers>:
 33c:	e92d4800 	push	{fp, lr}
 340:	e28db004 	add	fp, sp, #4
 344:	e24dd008 	sub	sp, sp, #8
 348:	ebfffffe 	bl	0 <Xil_ExceptionInit>
 34c:	e3a00001 	mov	r0, #1
 350:	e3001000 	movw	r1, #0
 354:	e3401000 	movt	r1, #0
 358:	e3a02000 	mov	r2, #0
 35c:	ebfffffe 	bl	0 <Xil_ExceptionRegisterHandler>
 360:	e3a00002 	mov	r0, #2
 364:	e3001000 	movw	r1, #0
 368:	e3401000 	movt	r1, #0
 36c:	e3a02000 	mov	r2, #0
 370:	ebfffffe 	bl	0 <Xil_ExceptionRegisterHandler>
 374:	e3a00003 	mov	r0, #3
 378:	e3001000 	movw	r1, #0
 37c:	e3401000 	movt	r1, #0
 380:	e3a02000 	mov	r2, #0
 384:	ebfffffe 	bl	0 <Xil_ExceptionRegisterHandler>
 388:	e3a00004 	mov	r0, #4
 38c:	e3001000 	movw	r1, #0
 390:	e3401000 	movt	r1, #0
 394:	e3a02000 	mov	r2, #0
 398:	ebfffffe 	bl	0 <Xil_ExceptionRegisterHandler>
 39c:	e3a00005 	mov	r0, #5
 3a0:	e3001000 	movw	r1, #0
 3a4:	e3401000 	movt	r1, #0
 3a8:	e3a02000 	mov	r2, #0
 3ac:	ebfffffe 	bl	0 <Xil_ExceptionRegisterHandler>
 3b0:	e3a00006 	mov	r0, #6
 3b4:	e3001000 	movw	r1, #0
 3b8:	e3401000 	movt	r1, #0
 3bc:	e3a02000 	mov	r2, #0
 3c0:	ebfffffe 	bl	0 <Xil_ExceptionRegisterHandler>
 3c4:	e10f3000 	mrs	r3, CPSR
 3c8:	e50b3008 	str	r3, [fp, #-8]
 3cc:	e51b3008 	ldr	r3, [fp, #-8]
 3d0:	e3c33080 	bic	r3, r3, #128	; 0x80
 3d4:	e129f003 	msr	CPSR_fc, r3
 3d8:	e24bd004 	sub	sp, fp, #4
 3dc:	e8bd8800 	pop	{fp, pc}

000003e0 <Undef_Handler>:
 3e0:	e92d4800 	push	{fp, lr}
 3e4:	e28db004 	add	fp, sp, #4
 3e8:	e3000000 	movw	r0, #0
 3ec:	e3400000 	movt	r0, #0
 3f0:	ebfffffe 	bl	0 <xil_printf>
 3f4:	e30a0301 	movw	r0, #41729	; 0xa301
 3f8:	ebfffffe 	bl	1b8 <ErrorLockdown>
 3fc:	e8bd8800 	pop	{fp, pc}

00000400 <SVC_Handler>:
 400:	e92d4800 	push	{fp, lr}
 404:	e28db004 	add	fp, sp, #4
 408:	e3000000 	movw	r0, #0
 40c:	e3400000 	movt	r0, #0
 410:	ebfffffe 	bl	0 <xil_printf>
 414:	e30a0302 	movw	r0, #41730	; 0xa302
 418:	ebfffffe 	bl	1b8 <ErrorLockdown>
 41c:	e8bd8800 	pop	{fp, pc}

00000420 <PreFetch_Abort_Handler>:
 420:	e92d4800 	push	{fp, lr}
 424:	e28db004 	add	fp, sp, #4
 428:	e3000000 	movw	r0, #0
 42c:	e3400000 	movt	r0, #0
 430:	ebfffffe 	bl	0 <xil_printf>
 434:	e30a0303 	movw	r0, #41731	; 0xa303
 438:	ebfffffe 	bl	1b8 <ErrorLockdown>
 43c:	e8bd8800 	pop	{fp, pc}

00000440 <Data_Abort_Handler>:
 440:	e92d4800 	push	{fp, lr}
 444:	e28db004 	add	fp, sp, #4
 448:	e3000000 	movw	r0, #0
 44c:	e3400000 	movt	r0, #0
 450:	ebfffffe 	bl	0 <xil_printf>
 454:	e30a0304 	movw	r0, #41732	; 0xa304
 458:	ebfffffe 	bl	1b8 <ErrorLockdown>
 45c:	e8bd8800 	pop	{fp, pc}

00000460 <IRQ_Handler>:
 460:	e92d4800 	push	{fp, lr}
 464:	e28db004 	add	fp, sp, #4
 468:	e3000000 	movw	r0, #0
 46c:	e3400000 	movt	r0, #0
 470:	ebfffffe 	bl	0 <xil_printf>
 474:	e30a0305 	movw	r0, #41733	; 0xa305
 478:	ebfffffe 	bl	1b8 <ErrorLockdown>
 47c:	e8bd8800 	pop	{fp, pc}

00000480 <FIQ_Handler>:
 480:	e92d4800 	push	{fp, lr}
 484:	e28db004 	add	fp, sp, #4
 488:	e3000000 	movw	r0, #0
 48c:	e3400000 	movt	r0, #0
 490:	ebfffffe 	bl	0 <xil_printf>
 494:	e30a0306 	movw	r0, #41734	; 0xa306
 498:	ebfffffe 	bl	1b8 <ErrorLockdown>
 49c:	e8bd8800 	pop	{fp, pc}

000004a0 <Update_MultiBootRegister>:
 4a0:	e92d4800 	push	{fp, lr}
 4a4:	e28db004 	add	fp, sp, #4
 4a8:	e24dd008 	sub	sp, sp, #8
 4ac:	e3a03000 	mov	r3, #0
 4b0:	e50b3008 	str	r3, [fp, #-8]
 4b4:	e3003000 	movw	r3, #0
 4b8:	e3403000 	movt	r3, #0
 4bc:	e5933000 	ldr	r3, [r3]
 4c0:	e3530000 	cmp	r3, #0
 4c4:	0a000016 	beq	524 <Update_MultiBootRegister+0x84>
 4c8:	e3003000 	movw	r3, #0
 4cc:	e3403000 	movt	r3, #0
 4d0:	e5933000 	ldr	r3, [r3]
 4d4:	e5933004 	ldr	r3, [r3, #4]
 4d8:	e283302c 	add	r3, r3, #44	; 0x2c
 4dc:	e1a00003 	mov	r0, r3
 4e0:	ebfffffe 	bl	0 <Xil_In32>
 4e4:	e50b0008 	str	r0, [fp, #-8]
 4e8:	e51b3008 	ldr	r3, [fp, #-8]
 4ec:	e2833001 	add	r3, r3, #1
 4f0:	e50b3008 	str	r3, [fp, #-8]
 4f4:	e3003000 	movw	r3, #0
 4f8:	e3403000 	movt	r3, #0
 4fc:	e5933000 	ldr	r3, [r3]
 500:	e5933004 	ldr	r3, [r3, #4]
 504:	e283302c 	add	r3, r3, #44	; 0x2c
 508:	e1a00003 	mov	r0, r3
 50c:	e51b1008 	ldr	r1, [fp, #-8]
 510:	ebfffffe 	bl	0 <Xil_Out32>
 514:	e3000000 	movw	r0, #0
 518:	e3400000 	movt	r0, #0
 51c:	e51b1008 	ldr	r1, [fp, #-8]
 520:	ebfffffe 	bl	0 <xil_printf>
 524:	e24bd004 	sub	sp, fp, #4
 528:	e8bd8800 	pop	{fp, pc}

0000052c <GetResetReason>:
 52c:	e92d4800 	push	{fp, lr}
 530:	e28db004 	add	fp, sp, #4
 534:	e24dd008 	sub	sp, sp, #8
 538:	e3a00f96 	mov	r0, #600	; 0x258
 53c:	e34f0800 	movt	r0, #63488	; 0xf800
 540:	ebfffffe 	bl	0 <Xil_In32>
 544:	e1a03000 	mov	r3, r0
 548:	e1a03823 	lsr	r3, r3, #16
 54c:	e6ef3073 	uxtb	r3, r3
 550:	e50b3008 	str	r3, [fp, #-8]
 554:	e51b3008 	ldr	r3, [fp, #-8]
 558:	e1a00003 	mov	r0, r3
 55c:	e24bd004 	sub	sp, fp, #4
 560:	e8bd8800 	pop	{fp, pc}

00000564 <FsblGetGlobalTime>:
 564:	e92d4800 	push	{fp, lr}
 568:	e28db004 	add	fp, sp, #4
 56c:	e24dd008 	sub	sp, sp, #8
 570:	e50b0008 	str	r0, [fp, #-8]
 574:	e51b0008 	ldr	r0, [fp, #-8]
 578:	ebfffffe 	bl	0 <XTime_GetTime>
 57c:	e24bd004 	sub	sp, fp, #4
 580:	e8bd8800 	pop	{fp, pc}

00000584 <FsblMeasurePerfTime>:
 584:	e92d4800 	push	{fp, lr}
 588:	ed2d8b02 	vpush	{d8}
 58c:	e28db00c 	add	fp, sp, #12
 590:	e24dd020 	sub	sp, sp, #32
 594:	e14b02f4 	strd	r0, [fp, #-36]	; 0xffffffdc
 598:	e14b22fc 	strd	r2, [fp, #-44]	; 0xffffffd4
 59c:	e3a02000 	mov	r2, #0
 5a0:	e3a03000 	mov	r3, #0
 5a4:	e14b21f4 	strd	r2, [fp, #-20]	; 0xffffffec
 5a8:	e24b302c 	sub	r3, fp, #44	; 0x2c
 5ac:	e1a00003 	mov	r0, r3
 5b0:	ebfffffe 	bl	0 <XTime_GetTime>
 5b4:	e14b22dc 	ldrd	r2, [fp, #-44]	; 0xffffffd4
 5b8:	e1a00002 	mov	r0, r2
 5bc:	e1a01003 	mov	r1, r3
 5c0:	ebfffffe 	bl	0 <__aeabi_ul2d>
 5c4:	ec410b18 	vmov	d8, r0, r1
 5c8:	e14b02d4 	ldrd	r0, [fp, #-36]	; 0xffffffdc
 5cc:	ebfffffe 	bl	0 <__aeabi_ul2d>
 5d0:	ec410b30 	vmov	d16, r0, r1
 5d4:	ee780b60 	vsub.f64	d16, d8, d16
 5d8:	ed4b0b05 	vstr	d16, [fp, #-20]	; 0xffffffec
 5dc:	ed5b0b05 	vldr	d16, [fp, #-20]	; 0xffffffec
 5e0:	eddf1b08 	vldr	d17, [pc, #32]	; 608 <FsblMeasurePerfTime+0x84>
 5e4:	eec00ba1 	vdiv.f64	d16, d16, d17
 5e8:	ed4b0b07 	vstr	d16, [fp, #-28]	; 0xffffffe4
 5ec:	e3000000 	movw	r0, #0
 5f0:	e3400000 	movt	r0, #0
 5f4:	e14b21dc 	ldrd	r2, [fp, #-28]	; 0xffffffe4
 5f8:	ebfffffe 	bl	0 <printf>
 5fc:	e24bd00c 	sub	sp, fp, #12
 600:	ecbd8b02 	vpop	{d8}
 604:	e8bd8800 	pop	{fp, pc}
 608:	5f000000 	svcpl	0x00000000
 60c:	41b3de43 			; <UNDEFINED> instruction: 0x41b3de43

00000610 <GetSiliconVersion>:
 610:	e92d4800 	push	{fp, lr}
 614:	e28db004 	add	fp, sp, #4
 618:	e3003000 	movw	r3, #0
 61c:	e3403000 	movt	r3, #0
 620:	e5933000 	ldr	r3, [r3]
 624:	e5933004 	ldr	r3, [r3, #4]
 628:	e2833080 	add	r3, r3, #128	; 0x80
 62c:	e1a00003 	mov	r0, r3
 630:	ebfffffe 	bl	0 <Xil_In32>
 634:	e1a03000 	mov	r3, r0
 638:	e1a02e23 	lsr	r2, r3, #28
 63c:	e3003000 	movw	r3, #0
 640:	e3403000 	movt	r3, #0
 644:	e5832000 	str	r2, [r3]
 648:	e3003000 	movw	r3, #0
 64c:	e3403000 	movt	r3, #0
 650:	e5933000 	ldr	r3, [r3]
 654:	e3530003 	cmp	r3, #3
 658:	1a000003 	bne	66c <GetSiliconVersion+0x5c>
 65c:	e3000000 	movw	r0, #0
 660:	e3400000 	movt	r0, #0
 664:	ebfffffe 	bl	0 <xil_printf>
 668:	ea000007 	b	68c <GetSiliconVersion+0x7c>
 66c:	e3003000 	movw	r3, #0
 670:	e3403000 	movt	r3, #0
 674:	e5933000 	ldr	r3, [r3]
 678:	e2833001 	add	r3, r3, #1
 67c:	e3000000 	movw	r0, #0
 680:	e3400000 	movt	r0, #0
 684:	e1a01003 	mov	r1, r3
 688:	ebfffffe 	bl	0 <xil_printf>
 68c:	e8bd8800 	pop	{fp, pc}

00000690 <HeaderChecksum>:
 690:	e92d4800 	push	{fp, lr}
 694:	e28db004 	add	fp, sp, #4
 698:	e24dd018 	sub	sp, sp, #24
 69c:	e50b0018 	str	r0, [fp, #-24]	; 0xffffffe8
 6a0:	e3a03000 	mov	r3, #0
 6a4:	e50b3008 	str	r3, [fp, #-8]
 6a8:	e3a03000 	mov	r3, #0
 6ac:	e50b3010 	str	r3, [fp, #-16]
 6b0:	e3a03000 	mov	r3, #0
 6b4:	e50b300c 	str	r3, [fp, #-12]
 6b8:	ea000013 	b	70c <HeaderChecksum+0x7c>
 6bc:	e3003000 	movw	r3, #0
 6c0:	e3403000 	movt	r3, #0
 6c4:	e5933000 	ldr	r3, [r3]
 6c8:	e51b200c 	ldr	r2, [fp, #-12]
 6cc:	e1a01102 	lsl	r1, r2, #2
 6d0:	e51b2018 	ldr	r2, [fp, #-24]	; 0xffffffe8
 6d4:	e0812002 	add	r2, r1, r2
 6d8:	e2821020 	add	r1, r2, #32
 6dc:	e24b2010 	sub	r2, fp, #16
 6e0:	e1a00001 	mov	r0, r1
 6e4:	e1a01002 	mov	r1, r2
 6e8:	e3a02004 	mov	r2, #4
 6ec:	e12fff33 	blx	r3
 6f0:	e51b3010 	ldr	r3, [fp, #-16]
 6f4:	e51b2008 	ldr	r2, [fp, #-8]
 6f8:	e0823003 	add	r3, r2, r3
 6fc:	e50b3008 	str	r3, [fp, #-8]
 700:	e51b300c 	ldr	r3, [fp, #-12]
 704:	e2833001 	add	r3, r3, #1
 708:	e50b300c 	str	r3, [fp, #-12]
 70c:	e51b300c 	ldr	r3, [fp, #-12]
 710:	e3530009 	cmp	r3, #9
 714:	9affffe8 	bls	6bc <HeaderChecksum+0x2c>
 718:	e51b3008 	ldr	r3, [fp, #-8]
 71c:	e1e03003 	mvn	r3, r3
 720:	e50b3008 	str	r3, [fp, #-8]
 724:	e3003000 	movw	r3, #0
 728:	e3403000 	movt	r3, #0
 72c:	e5933000 	ldr	r3, [r3]
 730:	e51b2018 	ldr	r2, [fp, #-24]	; 0xffffffe8
 734:	e2821048 	add	r1, r2, #72	; 0x48
 738:	e24b2010 	sub	r2, fp, #16
 73c:	e1a00001 	mov	r0, r1
 740:	e1a01002 	mov	r1, r2
 744:	e3a02004 	mov	r2, #4
 748:	e12fff33 	blx	r3
 74c:	e51b2010 	ldr	r2, [fp, #-16]
 750:	e51b3008 	ldr	r3, [fp, #-8]
 754:	e1520003 	cmp	r2, r3
 758:	0a000005 	beq	774 <HeaderChecksum+0xe4>
 75c:	e3000000 	movw	r0, #0
 760:	e3400000 	movt	r0, #0
 764:	e51b1008 	ldr	r1, [fp, #-8]
 768:	ebfffffe 	bl	0 <xil_printf>
 76c:	e3a03001 	mov	r3, #1
 770:	ea000000 	b	778 <HeaderChecksum+0xe8>
 774:	e3a03000 	mov	r3, #0
 778:	e1a00003 	mov	r0, r3
 77c:	e24bd004 	sub	sp, fp, #4
 780:	e8bd8800 	pop	{fp, pc}

00000784 <ImageCheckID>:
 784:	e92d4800 	push	{fp, lr}
 788:	e28db004 	add	fp, sp, #4
 78c:	e24dd010 	sub	sp, sp, #16
 790:	e50b0010 	str	r0, [fp, #-16]
 794:	e3003000 	movw	r3, #0
 798:	e3403000 	movt	r3, #0
 79c:	e5933000 	ldr	r3, [r3]
 7a0:	e51b2010 	ldr	r2, [fp, #-16]
 7a4:	e2821024 	add	r1, r2, #36	; 0x24
 7a8:	e24b2008 	sub	r2, fp, #8
 7ac:	e1a00001 	mov	r0, r1
 7b0:	e1a01002 	mov	r1, r2
 7b4:	e3a02004 	mov	r2, #4
 7b8:	e12fff33 	blx	r3
 7bc:	e51b2008 	ldr	r2, [fp, #-8]
 7c0:	e3043e58 	movw	r3, #20056	; 0x4e58
 7c4:	e345384c 	movt	r3, #22604	; 0x584c
 7c8:	e1520003 	cmp	r2, r3
 7cc:	0a000001 	beq	7d8 <ImageCheckID+0x54>
 7d0:	e3a03001 	mov	r3, #1
 7d4:	ea000000 	b	7dc <ImageCheckID+0x58>
 7d8:	e3a03000 	mov	r3, #0
 7dc:	e1a00003 	mov	r0, r3
 7e0:	e24bd004 	sub	sp, fp, #4
 7e4:	e8bd8800 	pop	{fp, pc}

000007e8 <NextValidImageCheck>:
 7e8:	e92d4800 	push	{fp, lr}
 7ec:	e28db004 	add	fp, sp, #4
 7f0:	e24dd010 	sub	sp, sp, #16
 7f4:	e3a03000 	mov	r3, #0
 7f8:	e50b3010 	str	r3, [fp, #-16]
 7fc:	e3000000 	movw	r0, #0
 800:	e3400000 	movt	r0, #0
 804:	ebfffffe 	bl	0 <xil_printf>
 808:	e3003000 	movw	r3, #0
 80c:	e3403000 	movt	r3, #0
 810:	e5933000 	ldr	r3, [r3]
 814:	e353033f 	cmp	r3, #-67108864	; 0xfc000000
 818:	1a000003 	bne	82c <NextValidImageCheck+0x44>
 81c:	e3003000 	movw	r3, #0
 820:	e3403000 	movt	r3, #0
 824:	e5933000 	ldr	r3, [r3]
 828:	e50b3010 	str	r3, [fp, #-16]
 82c:	e3003000 	movw	r3, #0
 830:	e3403000 	movt	r3, #0
 834:	e5933000 	ldr	r3, [r3]
 838:	e35304e1 	cmp	r3, #-520093696	; 0xe1000000
 83c:	1a000001 	bne	848 <NextValidImageCheck+0x60>
 840:	e3a03302 	mov	r3, #134217728	; 0x8000000
 844:	e50b3010 	str	r3, [fp, #-16]
 848:	e3003000 	movw	r3, #0
 84c:	e3403000 	movt	r3, #0
 850:	e5933000 	ldr	r3, [r3]
 854:	e35304e2 	cmp	r3, #-503316480	; 0xe2000000
 858:	1a000001 	bne	864 <NextValidImageCheck+0x7c>
 85c:	e3a03402 	mov	r3, #33554432	; 0x2000000
 860:	e50b3010 	str	r3, [fp, #-16]
 864:	e3003000 	movw	r3, #0
 868:	e3403000 	movt	r3, #0
 86c:	e5933000 	ldr	r3, [r3]
 870:	e5933004 	ldr	r3, [r3, #4]
 874:	e283302c 	add	r3, r3, #44	; 0x2c
 878:	e1a00003 	mov	r0, r3
 87c:	ebfffffe 	bl	0 <Xil_In32>
 880:	e50b000c 	str	r0, [fp, #-12]
 884:	e51b300c 	ldr	r3, [fp, #-12]
 888:	e7ec3053 	ubfx	r3, r3, #0, #13
 88c:	e1a03783 	lsl	r3, r3, #15
 890:	e50b3008 	str	r3, [fp, #-8]
 894:	ea000021 	b	920 <NextValidImageCheck+0x138>
 898:	e3000000 	movw	r0, #0
 89c:	e3400000 	movt	r0, #0
 8a0:	ebfffffe 	bl	0 <xil_printf>
 8a4:	e51b0008 	ldr	r0, [fp, #-8]
 8a8:	ebfffffe 	bl	784 <ImageCheckID>
 8ac:	e1a03000 	mov	r3, r0
 8b0:	e3530000 	cmp	r3, #0
 8b4:	1a000012 	bne	904 <NextValidImageCheck+0x11c>
 8b8:	e51b0008 	ldr	r0, [fp, #-8]
 8bc:	ebfffffe 	bl	690 <HeaderChecksum>
 8c0:	e1a03000 	mov	r3, r0
 8c4:	e3530000 	cmp	r3, #0
 8c8:	1a00000d 	bne	904 <NextValidImageCheck+0x11c>
 8cc:	e3000000 	movw	r0, #0
 8d0:	e3400000 	movt	r0, #0
 8d4:	e51b1008 	ldr	r1, [fp, #-8]
 8d8:	ebfffffe 	bl	0 <xil_printf>
 8dc:	e3003000 	movw	r3, #0
 8e0:	e3403000 	movt	r3, #0
 8e4:	e5933000 	ldr	r3, [r3]
 8e8:	e5933004 	ldr	r3, [r3, #4]
 8ec:	e283302c 	add	r3, r3, #44	; 0x2c
 8f0:	e1a00003 	mov	r0, r3
 8f4:	e51b100c 	ldr	r1, [fp, #-12]
 8f8:	ebfffffe 	bl	0 <Xil_Out32>
 8fc:	e3a03000 	mov	r3, #0
 900:	ea00000b 	b	934 <NextValidImageCheck+0x14c>
 904:	e51b300c 	ldr	r3, [fp, #-12]
 908:	e2833001 	add	r3, r3, #1
 90c:	e50b300c 	str	r3, [fp, #-12]
 910:	e51b300c 	ldr	r3, [fp, #-12]
 914:	e7ec3053 	ubfx	r3, r3, #0, #13
 918:	e1a03783 	lsl	r3, r3, #15
 91c:	e50b3008 	str	r3, [fp, #-8]
 920:	e51b2008 	ldr	r2, [fp, #-8]
 924:	e51b3010 	ldr	r3, [fp, #-16]
 928:	e1520003 	cmp	r2, r3
 92c:	3affffd9 	bcc	898 <NextValidImageCheck+0xb0>
 930:	e3a03001 	mov	r3, #1
 934:	e1a00003 	mov	r0, r3
 938:	e24bd004 	sub	sp, fp, #4
 93c:	e8bd8800 	pop	{fp, pc}

00000940 <DDRInitCheck>:
 940:	e92d4800 	push	{fp, lr}
 944:	e28db004 	add	fp, sp, #4
 948:	e24dd008 	sub	sp, sp, #8
 94c:	e3a00601 	mov	r0, #1048576	; 0x100000
 950:	e30a1a55 	movw	r1, #43605	; 0xaa55
 954:	e34a1a55 	movt	r1, #43605	; 0xaa55
 958:	ebfffffe 	bl	0 <Xil_Out32>
 95c:	e3a00601 	mov	r0, #1048576	; 0x100000
 960:	ebfffffe 	bl	0 <Xil_In32>
 964:	e50b0008 	str	r0, [fp, #-8]
 968:	e51b2008 	ldr	r2, [fp, #-8]
 96c:	e30a3a55 	movw	r3, #43605	; 0xaa55
 970:	e34a3a55 	movt	r3, #43605	; 0xaa55
 974:	e1520003 	cmp	r2, r3
 978:	0a000001 	beq	984 <DDRInitCheck+0x44>
 97c:	e3a03001 	mov	r3, #1
 980:	ea00000e 	b	9c0 <DDRInitCheck+0x80>
 984:	e3a00602 	mov	r0, #2097152	; 0x200000
 988:	e30a1a55 	movw	r1, #43605	; 0xaa55
 98c:	e34a1a55 	movt	r1, #43605	; 0xaa55
 990:	ebfffffe 	bl	0 <Xil_Out32>
 994:	e3a00602 	mov	r0, #2097152	; 0x200000
 998:	ebfffffe 	bl	0 <Xil_In32>
 99c:	e50b0008 	str	r0, [fp, #-8]
 9a0:	e51b2008 	ldr	r2, [fp, #-8]
 9a4:	e30a3a55 	movw	r3, #43605	; 0xaa55
 9a8:	e34a3a55 	movt	r3, #43605	; 0xaa55
 9ac:	e1520003 	cmp	r2, r3
 9b0:	0a000001 	beq	9bc <DDRInitCheck+0x7c>
 9b4:	e3a03001 	mov	r3, #1
 9b8:	ea000000 	b	9c0 <DDRInitCheck+0x80>
 9bc:	e3a03000 	mov	r3, #0
 9c0:	e1a00003 	mov	r0, r3
 9c4:	e24bd004 	sub	sp, fp, #4
 9c8:	e8bd8800 	pop	{fp, pc}
 9cc:	e320f000 	nop	{0}
